; Function Attrs: mustprogress uwtable
define noundef zeroext i1 @_ZN8facebook4yoga4Node14isNodeFlexibleEv(ptr noundef nonnull readonly align 8 captures(none) dereferenceable(584) %0) local_unnamed_addr #3 align 2 {
  %2 = getelementptr inbounds nuw i8, ptr %0, i64 40
  %3 = load i32, ptr %2, align 8
  %4 = and i32 %3, 3145728
  %.not = icmp eq i32 %4, 2097152
  br i1 %.not, label %11, label %5

5:                                                ; preds = %1
  %6 = tail call noundef float @_ZNK8facebook4yoga4Node15resolveFlexGrowEv(ptr noundef nonnull align 8 dereferenceable(584) %0)
  %7 = fcmp une float %6, 0.000000e+00
  br i1 %7, label %11, label %8

8:                                                ; preds = %5
  %9 = tail call noundef float @_ZNK8facebook4yoga4Node17resolveFlexShrinkEv(ptr noundef nonnull align 8 dereferenceable(584) %0)
  %10 = fcmp une float %9, 0.000000e+00
  br label %11

11:                                               ; preds = %5, %8, %1
  %12 = phi i1 [ false, %1 ], [ true, %5 ], [ %10, %8 ]
  ret i1 %12
}